target datalayout = "e-m:e-p270:32:32-p271:32:32-p272:64:64-i64:64-i128:128-f80:128-n8:16:32:64-S128"
target triple = "x86_64-pc-linux-gnu"

%struct.bufferevent_ops = type { ptr, i64, ptr, ptr, ptr, ptr, ptr, ptr, ptr }
%struct.bufferevent = type { ptr, ptr, %struct.event, %struct.event, ptr, ptr, %struct.event_watermark, %struct.event_watermark, ptr, ptr, ptr, ptr, %struct.timeval, %struct.timeval, i16 }
%struct.event = type { %struct.event_callback, %union.anon.0, i32, i16, i16, ptr, %union.anon.2, %struct.timeval }
%struct.event_callback = type { %struct.anon, i16, i8, i8, %union.anon, ptr }
%struct.anon = type { ptr, ptr }
%union.anon = type { ptr }
%union.anon.0 = type { %struct.anon.1 }
%struct.anon.1 = type { ptr, ptr }
%union.anon.2 = type { %struct.anon.3 }
%struct.anon.3 = type { %struct.anon.4, %struct.timeval }
%struct.anon.4 = type { ptr, ptr }
%struct.event_watermark = type { i64, i64 }
%struct.timeval = type { i64, i64 }
%struct.bufferevent_filtered = type { %struct.bufferevent_private, ptr, ptr, ptr, i32, ptr, ptr, ptr, ptr }
%struct.bufferevent_private = type { %struct.bufferevent, ptr, i8, i16, i16, i16, i32, i32, %struct.event_callback, i32, i32, ptr, i64, i64, ptr, %union.anon.7, ptr }
%union.anon.7 = type { %struct.sockaddr_in6 }
%struct.sockaddr_in6 = type { i16, i16, i32, %struct.in6_addr, i32 }
%struct.in6_addr = type { %union.anon.8 }
%union.anon.8 = type { [4 x i32] }

@bufferevent_ops_filter = hidden constant %struct.bufferevent_ops { ptr @.str, i64 0, ptr @be_filter_enable, ptr @be_filter_disable, ptr @be_filter_unlink, ptr @be_filter_destruct, ptr @bufferevent_generic_adj_timeouts_, ptr @be_filter_flush, ptr @be_filter_ctrl }, align 8

; Function Attrs: nounwind uwtable
define ptr @bufferevent_filter_new(ptr noundef %0, ptr noundef %1, ptr noundef %2, i32 noundef %3, ptr noundef %4, ptr noundef %5) #0 {
  %7 = alloca ptr, align 8
  %8 = alloca ptr, align 8
  %9 = alloca ptr, align 8
  %10 = alloca ptr, align 8
  %11 = alloca i32, align 4
  %12 = alloca ptr, align 8
  %13 = alloca ptr, align 8
  %14 = alloca ptr, align 8
  %15 = alloca i32, align 4
  %16 = alloca i32, align 4
  store ptr %0, ptr %8, align 8
  store ptr %1, ptr %9, align 8
  store ptr %2, ptr %10, align 8
  store i32 %3, ptr %11, align 4
  store ptr %4, ptr %12, align 8
  store ptr %5, ptr %13, align 8
  call void @llvm.lifetime.start.p0(i64 8, ptr %14) #4
  call void @llvm.lifetime.start.p0(i64 4, ptr %15) #4
  %17 = load i32, ptr %11, align 4
  %18 = and i32 %17, -3
  store i32 %18, ptr %15, align 4
  %19 = load ptr, ptr %8, align 8
  %20 = icmp ne ptr %19, null
  br i1 %20, label %22, label %21

21:                                               ; preds = %6
  store ptr null, ptr %7, align 8
  store i32 1, ptr %16, align 4
  br label %112

22:                                               ; preds = %6
  %23 = load ptr, ptr %9, align 8
  %24 = icmp ne ptr %23, null
  br i1 %24, label %26, label %25

25:                                               ; preds = %22
  store ptr @be_null_filter, ptr %9, align 8
  br label %26

26:                                               ; preds = %25, %22
  %27 = load ptr, ptr %10, align 8
  %28 = icmp ne ptr %27, null
  br i1 %28, label %30, label %29

29:                                               ; preds = %26
  store ptr @be_null_filter, ptr %10, align 8
  br label %30

30:                                               ; preds = %29, %26
  %31 = call ptr @event_mm_calloc_(i64 noundef 1, i64 noundef 584)
  store ptr %31, ptr %14, align 8
  %32 = load ptr, ptr %14, align 8
  %33 = icmp ne ptr %32, null
  br i1 %33, label %35, label %34

34:                                               ; preds = %30
  store ptr null, ptr %7, align 8
  store i32 1, ptr %16, align 4
  br label %112

35:                                               ; preds = %30
  %36 = load ptr, ptr %14, align 8
  %37 = getelementptr inbounds nuw %struct.bufferevent_filtered, ptr %36, i32 0, i32 0
  %38 = load ptr, ptr %8, align 8
  %39 = getelementptr inbounds nuw %struct.bufferevent, ptr %38, i32 0, i32 0
  %40 = load ptr, ptr %39, align 8
  %41 = load i32, ptr %15, align 4
  %42 = call i32 @bufferevent_init_common_(ptr noundef %37, ptr noundef %40, ptr noundef @bufferevent_ops_filter, i32 noundef %41)
  %43 = icmp slt i32 %42, 0
  br i1 %43, label %44, label %46

44:                                               ; preds = %35
  %45 = load ptr, ptr %14, align 8
  call void @event_mm_free_(ptr noundef %45)
  store ptr null, ptr %7, align 8
  store i32 1, ptr %16, align 4
  br label %112

46:                                               ; preds = %35
  %47 = load i32, ptr %11, align 4
  %48 = and i32 %47, 2
  %49 = icmp ne i32 %48, 0
  br i1 %49, label %50, label %55

50:                                               ; preds = %46
  %51 = load ptr, ptr %14, align 8
  %52 = getelementptr inbounds nuw %struct.bufferevent_filtered, ptr %51, i32 0, i32 0
  %53 = getelementptr inbounds nuw %struct.bufferevent_private, ptr %52, i32 0, i32 0
  %54 = call i32 @bufferevent_enable_locking_(ptr noundef %53, ptr noundef null)
  br label %55

55:                                               ; preds = %50, %46
  %56 = load ptr, ptr %8, align 8
  %57 = load ptr, ptr %14, align 8
  %58 = getelementptr inbounds nuw %struct.bufferevent_filtered, ptr %57, i32 0, i32 1
  store ptr %56, ptr %58, align 8
  %59 = load ptr, ptr %9, align 8
  %60 = load ptr, ptr %14, align 8
  %61 = getelementptr inbounds nuw %struct.bufferevent_filtered, ptr %60, i32 0, i32 6
  store ptr %59, ptr %61, align 8
  %62 = load ptr, ptr %10, align 8
  %63 = load ptr, ptr %14, align 8
  %64 = getelementptr inbounds nuw %struct.bufferevent_filtered, ptr %63, i32 0, i32 7
  store ptr %62, ptr %64, align 8
  %65 = load ptr, ptr %12, align 8
  %66 = load ptr, ptr %14, align 8
  %67 = getelementptr inbounds nuw %struct.bufferevent_filtered, ptr %66, i32 0, i32 5
  store ptr %65, ptr %67, align 8
  %68 = load ptr, ptr %13, align 8
  %69 = load ptr, ptr %14, align 8
  %70 = getelementptr inbounds nuw %struct.bufferevent_filtered, ptr %69, i32 0, i32 8
  store ptr %68, ptr %70, align 8
  %71 = load ptr, ptr %14, align 8
  %72 = getelementptr inbounds nuw %struct.bufferevent_filtered, ptr %71, i32 0, i32 1
  %73 = load ptr, ptr %72, align 8
  %74 = load ptr, ptr %14, align 8
  call void @bufferevent_setcb(ptr noundef %73, ptr noundef @be_filter_readcb, ptr noundef @be_filter_writecb, ptr noundef @be_filter_eventcb, ptr noundef %74)
  %75 = load ptr, ptr %14, align 8
  %76 = getelementptr inbounds nuw %struct.bufferevent_filtered, ptr %75, i32 0, i32 0
  %77 = getelementptr inbounds nuw %struct.bufferevent_private, ptr %76, i32 0, i32 0
  %78 = getelementptr inbounds nuw %struct.bufferevent, ptr %77, i32 0, i32 4
  %79 = load ptr, ptr %78, align 8
  %80 = load ptr, ptr %14, align 8
  %81 = call ptr @evbuffer_add_cb(ptr noundef %79, ptr noundef @bufferevent_filtered_inbuf_cb, ptr noundef %80)
  %82 = load ptr, ptr %14, align 8
  %83 = getelementptr inbounds nuw %struct.bufferevent_filtered, ptr %82, i32 0, i32 2
  store ptr %81, ptr %83, align 8
  %84 = load ptr, ptr %14, align 8
  %85 = getelementptr inbounds nuw %struct.bufferevent_filtered, ptr %84, i32 0, i32 0
  %86 = getelementptr inbounds nuw %struct.bufferevent_private, ptr %85, i32 0, i32 0
  %87 = getelementptr inbounds nuw %struct.bufferevent, ptr %86, i32 0, i32 4
  %88 = load ptr, ptr %87, align 8
  %89 = load ptr, ptr %14, align 8
  %90 = getelementptr inbounds nuw %struct.bufferevent_filtered, ptr %89, i32 0, i32 2
  %91 = load ptr, ptr %90, align 8
  %92 = call i32 @evbuffer_cb_clear_flags(ptr noundef %88, ptr noundef %91, i32 noundef 1)
  %93 = load ptr, ptr %14, align 8
  %94 = getelementptr inbounds nuw %struct.bufferevent_filtered, ptr %93, i32 0, i32 0
  %95 = getelementptr inbounds nuw %struct.bufferevent_private, ptr %94, i32 0, i32 0
  %96 = getelementptr inbounds nuw %struct.bufferevent, ptr %95, i32 0, i32 5
  %97 = load ptr, ptr %96, align 8
  %98 = load ptr, ptr %14, align 8
  %99 = call ptr @evbuffer_add_cb(ptr noundef %97, ptr noundef @bufferevent_filtered_outbuf_cb, ptr noundef %98)
  %100 = load ptr, ptr %14, align 8
  %101 = getelementptr inbounds nuw %struct.bufferevent_filtered, ptr %100, i32 0, i32 3
  store ptr %99, ptr %101, align 8
  %102 = load ptr, ptr %14, align 8
  %103 = getelementptr inbounds nuw %struct.bufferevent_filtered, ptr %102, i32 0, i32 0
  %104 = getelementptr inbounds nuw %struct.bufferevent_private, ptr %103, i32 0, i32 0
  call void @bufferevent_init_generic_timeout_cbs_(ptr noundef %104)
  %105 = load ptr, ptr %8, align 8
  call void @bufferevent_incref(ptr noundef %105)
  %106 = load ptr, ptr %8, align 8
  %107 = call i32 @bufferevent_enable(ptr noundef %106, i16 noundef signext 6)
  %108 = load ptr, ptr %8, align 8
  call void @bufferevent_suspend_read_(ptr noundef %108, i16 noundef zeroext 16)
  %109 = load ptr, ptr %14, align 8
  %110 = getelementptr inbounds nuw %struct.bufferevent_filtered, ptr %109, i32 0, i32 0
  %111 = getelementptr inbounds nuw %struct.bufferevent_private, ptr %110, i32 0, i32 0
  store ptr %111, ptr %7, align 8
  store i32 1, ptr %16, align 4
  br label %112

112:                                              ; preds = %55, %44, %34, %21
  call void @llvm.lifetime.end.p0(i64 4, ptr %15) #4
  call void @llvm.lifetime.end.p0(i64 8, ptr %14) #4
  %113 = load ptr, ptr %7, align 8
  ret ptr %113
}