; Function Attrs: nounwind uwtable
define ptr @bufferevent_filter_new(ptr noundef %0, ptr noundef %1, ptr noundef %2, i32 noundef %3, ptr noundef %4, ptr noundef %5) local_unnamed_addr #0 {
  %7 = and i32 %3, -3
  %.not = icmp eq ptr %0, null
  br i1 %.not, label %36, label %8

8:                                                ; preds = %6
  %.not39 = icmp eq ptr %1, null
  %spec.store.select = select i1 %.not39, ptr @be_null_filter, ptr %1
  %.not40 = icmp eq ptr %2, null
  %spec.store.select1 = select i1 %.not40, ptr @be_null_filter, ptr %2
  %9 = tail call ptr @event_mm_calloc_(i64 noundef 1, i64 noundef 584) #3
  %.not41 = icmp eq ptr %9, null
  br i1 %.not41, label %36, label %10

10:                                               ; preds = %8
  %11 = load ptr, ptr %0, align 8
  %12 = tail call i32 @bufferevent_init_common_(ptr noundef nonnull %9, ptr noundef %11, ptr noundef nonnull @bufferevent_ops_filter, i32 noundef %7) #3
  %13 = icmp slt i32 %12, 0
  br i1 %13, label %14, label %15

14:                                               ; preds = %10
  tail call void @event_mm_free_(ptr noundef nonnull %9) #3
  br label %36

15:                                               ; preds = %10
  %16 = and i32 %3, 2
  %.not42 = icmp eq i32 %16, 0
  br i1 %.not42, label %19, label %17

17:                                               ; preds = %15
  %18 = tail call i32 @bufferevent_enable_locking_(ptr noundef nonnull %9, ptr noundef null) #3
  br label %19

19:                                               ; preds = %17, %15
  %20 = getelementptr inbounds nuw i8, ptr %9, i64 520
  store ptr %0, ptr %20, align 8
  %21 = getelementptr inbounds nuw i8, ptr %9, i64 560
  store ptr %spec.store.select, ptr %21, align 8
  %22 = getelementptr inbounds nuw i8, ptr %9, i64 568
  store ptr %spec.store.select1, ptr %22, align 8
  %23 = getelementptr inbounds nuw i8, ptr %9, i64 552
  store ptr %4, ptr %23, align 8
  %24 = getelementptr inbounds nuw i8, ptr %9, i64 576
  store ptr %5, ptr %24, align 8
  tail call void @bufferevent_setcb(ptr noundef nonnull %0, ptr noundef nonnull @be_filter_readcb, ptr noundef nonnull @be_filter_writecb, ptr noundef nonnull @be_filter_eventcb, ptr noundef nonnull %9) #3
  %25 = getelementptr inbounds nuw i8, ptr %9, i64 256
  %26 = load ptr, ptr %25, align 8
  %27 = tail call ptr @evbuffer_add_cb(ptr noundef %26, ptr noundef nonnull @bufferevent_filtered_inbuf_cb, ptr noundef nonnull %9) #3
  %28 = getelementptr inbounds nuw i8, ptr %9, i64 528
  store ptr %27, ptr %28, align 8
  %29 = load ptr, ptr %25, align 8
  %30 = tail call i32 @evbuffer_cb_clear_flags(ptr noundef %29, ptr noundef %27, i32 noundef 1) #3
  %31 = getelementptr inbounds nuw i8, ptr %9, i64 264
  %32 = load ptr, ptr %31, align 8
  %33 = tail call ptr @evbuffer_add_cb(ptr noundef %32, ptr noundef nonnull @bufferevent_filtered_outbuf_cb, ptr noundef nonnull %9) #3
  %34 = getelementptr inbounds nuw i8, ptr %9, i64 536
  store ptr %33, ptr %34, align 8
  tail call void @bufferevent_init_generic_timeout_cbs_(ptr noundef nonnull %9) #3
  tail call void @bufferevent_incref(ptr noundef nonnull %0) #3
  %35 = tail call i32 @bufferevent_enable(ptr noundef nonnull %0, i16 noundef signext 6) #3
  tail call void @bufferevent_suspend_read_(ptr noundef nonnull %0, i16 noundef zeroext 16) #3
  br label %36

36:                                               ; preds = %8, %6, %19, %14
  %.0 = phi ptr [ null, %14 ], [ %9, %19 ], [ null, %6 ], [ null, %8 ]
  ret ptr %.0
}